target datalayout = "e-m:e-p270:32:32-p271:32:32-p272:64:64-i64:64-i128:128-f80:128-n8:16:32:64-S128"
target triple = "x86_64-pc-linux-gnu"

%struct._lv_lru_rb_t = type { %struct._lv_cache_t, %struct._lv_rb_t, %struct.lv_ll_t, ptr }
%struct._lv_cache_t = type { ptr, i32, i32, i32, %struct._lv_cache_ops_t, i32, ptr }
%struct._lv_cache_ops_t = type { ptr, ptr, ptr }
%struct._lv_rb_t = type { ptr, ptr, i64 }
%struct.lv_ll_t = type { i32, ptr, ptr }
%struct._lv_rb_node_t = type { ptr, ptr, ptr, i32, ptr }

; Function Attrs: inlinehint nounwind uwtable
define internal ptr @get_lru_node(ptr noundef %0, ptr noundef %1) #3 {
  %3 = alloca ptr, align 8
  %4 = alloca ptr, align 8
  store ptr %0, ptr %3, align 8, !tbaa !3
  store ptr %1, ptr %4, align 8, !tbaa !3
  %5 = load ptr, ptr %4, align 8, !tbaa !3
  %6 = getelementptr inbounds nuw %struct._lv_rb_node_t, ptr %5, i32 0, i32 4
  %7 = load ptr, ptr %6, align 8, !tbaa !21
  %8 = load ptr, ptr %3, align 8, !tbaa !3
  %9 = getelementptr inbounds nuw %struct._lv_lru_rb_t, ptr %8, i32 0, i32 1
  %10 = getelementptr inbounds nuw %struct._lv_rb_t, ptr %9, i32 0, i32 2
  %11 = load i64, ptr %10, align 8, !tbaa !33
  %12 = getelementptr inbounds nuw i8, ptr %7, i64 %11
  %13 = getelementptr inbounds i8, ptr %12, i64 -8
  ret ptr %13
}

; Function Attrs: nounwind uwtable
define internal void @drop_cb(ptr noundef %0, ptr noundef %1, ptr noundef %2) #0 {
  %4 = alloca ptr, align 8
  %5 = alloca ptr, align 8
  %6 = alloca ptr, align 8
  %7 = alloca ptr, align 8
  %8 = alloca i32, align 4
  %9 = alloca ptr, align 8
  %10 = alloca ptr, align 8
  %11 = alloca ptr, align 8
  %12 = alloca ptr, align 8
  store ptr %0, ptr %4, align 8, !tbaa !3
  store ptr %1, ptr %5, align 8, !tbaa !3
  store ptr %2, ptr %6, align 8, !tbaa !3
  call void @llvm.lifetime.start.p0(i64 8, ptr %7) #4
  %13 = load ptr, ptr %4, align 8, !tbaa !3
  store ptr %13, ptr %7, align 8, !tbaa !3
  br label %14

14:                                               ; preds = %3
  %15 = load ptr, ptr %7, align 8, !tbaa !3
  %16 = icmp ne ptr %15, null
  br i1 %16, label %23, label %17

17:                                               ; preds = %14
  br label %18

18:                                               ; preds = %17
  br label %19

19:                                               ; preds = %18
  br label %20

20:                                               ; preds = %19
  br label %21

21:                                               ; preds = %22, %20
  br label %22

22:                                               ; preds = %21
  br label %21

23:                                               ; preds = %14
  br label %24

24:                                               ; preds = %23
  br label %25

25:                                               ; preds = %24
  br label %26

26:                                               ; preds = %25
  %27 = load ptr, ptr %5, align 8, !tbaa !3
  %28 = icmp ne ptr %27, null
  br i1 %28, label %35, label %29

29:                                               ; preds = %26
  br label %30

30:                                               ; preds = %29
  br label %31

31:                                               ; preds = %30
  br label %32

32:                                               ; preds = %31
  br label %33

33:                                               ; preds = %34, %32
  br label %34

34:                                               ; preds = %33
  br label %33

35:                                               ; preds = %26
  br label %36

36:                                               ; preds = %35
  br label %37

37:                                               ; preds = %36
  %38 = load ptr, ptr %7, align 8, !tbaa !3
  %39 = icmp eq ptr %38, null
  br i1 %39, label %43, label %40

40:                                               ; preds = %37
  %41 = load ptr, ptr %5, align 8, !tbaa !3
  %42 = icmp eq ptr %41, null
  br i1 %42, label %43, label %44

43:                                               ; preds = %40, %37
  store i32 1, ptr %8, align 4
  br label %91

44:                                               ; preds = %40
  call void @llvm.lifetime.start.p0(i64 8, ptr %9) #4
  %45 = load ptr, ptr %7, align 8, !tbaa !3
  %46 = getelementptr inbounds nuw %struct._lv_lru_rb_t, ptr %45, i32 0, i32 1
  %47 = load ptr, ptr %5, align 8, !tbaa !3
  %48 = call ptr @lv_rb_find(ptr noundef %46, ptr noundef %47)
  store ptr %48, ptr %9, align 8, !tbaa !3
  %49 = load ptr, ptr %9, align 8, !tbaa !3
  %50 = icmp eq ptr %49, null
  br i1 %50, label %51, label %52

51:                                               ; preds = %44
  store i32 1, ptr %8, align 4
  br label %90

52:                                               ; preds = %44
  call void @llvm.lifetime.start.p0(i64 8, ptr %10) #4
  %53 = load ptr, ptr %9, align 8, !tbaa !3
  %54 = getelementptr inbounds nuw %struct._lv_rb_node_t, ptr %53, i32 0, i32 4
  %55 = load ptr, ptr %54, align 8, !tbaa !21
  store ptr %55, ptr %10, align 8, !tbaa !3
  %56 = load ptr, ptr %7, align 8, !tbaa !3
  %57 = getelementptr inbounds nuw %struct._lv_lru_rb_t, ptr %56, i32 0, i32 0
  %58 = getelementptr inbounds nuw %struct._lv_cache_t, ptr %57, i32 0, i32 4
  %59 = getelementptr inbounds nuw %struct._lv_cache_ops_t, ptr %58, i32 0, i32 2
  %60 = load ptr, ptr %59, align 8, !tbaa !15
  %61 = load ptr, ptr %10, align 8, !tbaa !3
  %62 = load ptr, ptr %6, align 8, !tbaa !3
  call void %60(ptr noundef %61, ptr noundef %62)
  %63 = load ptr, ptr %7, align 8, !tbaa !3
  %64 = getelementptr inbounds nuw %struct._lv_lru_rb_t, ptr %63, i32 0, i32 3
  %65 = load ptr, ptr %64, align 8, !tbaa !17
  %66 = load ptr, ptr %10, align 8, !tbaa !3
  %67 = call i32 %65(ptr noundef %66)
  %68 = load ptr, ptr %4, align 8, !tbaa !3
  %69 = getelementptr inbounds nuw %struct._lv_cache_t, ptr %68, i32 0, i32 3
  %70 = load i32, ptr %69, align 8, !tbaa !24
  %71 = sub i32 %70, %67
  store i32 %71, ptr %69, align 8, !tbaa !24
  call void @llvm.lifetime.start.p0(i64 8, ptr %11) #4
  %72 = load ptr, ptr %10, align 8, !tbaa !3
  %73 = load ptr, ptr %4, align 8, !tbaa !3
  %74 = getelementptr inbounds nuw %struct._lv_cache_t, ptr %73, i32 0, i32 1
  %75 = load i32, ptr %74, align 8, !tbaa !23
  %76 = call ptr @lv_cache_entry_get_entry(ptr noundef %72, i32 noundef %75)
  store ptr %76, ptr %11, align 8, !tbaa !3
  call void @llvm.lifetime.start.p0(i64 8, ptr %12) #4
  %77 = load ptr, ptr %7, align 8, !tbaa !3
  %78 = load ptr, ptr %9, align 8, !tbaa !3
  %79 = call ptr @get_lru_node(ptr noundef %77, ptr noundef %78)
  %80 = load ptr, ptr %79, align 8, !tbaa !3
  store ptr %80, ptr %12, align 8, !tbaa !3
  %81 = load ptr, ptr %7, align 8, !tbaa !3
  %82 = getelementptr inbounds nuw %struct._lv_lru_rb_t, ptr %81, i32 0, i32 1
  %83 = load ptr, ptr %9, align 8, !tbaa !3
  %84 = call ptr @lv_rb_remove_node(ptr noundef %82, ptr noundef %83)
  %85 = load ptr, ptr %11, align 8, !tbaa !3
  call void @lv_cache_entry_delete(ptr noundef %85)
  %86 = load ptr, ptr %7, align 8, !tbaa !3
  %87 = getelementptr inbounds nuw %struct._lv_lru_rb_t, ptr %86, i32 0, i32 2
  %88 = load ptr, ptr %12, align 8, !tbaa !3
  call void @lv_ll_remove(ptr noundef %87, ptr noundef %88)
  %89 = load ptr, ptr %12, align 8, !tbaa !3
  call void @lv_free(ptr noundef %89)
  call void @llvm.lifetime.end.p0(i64 8, ptr %12) #4
  call void @llvm.lifetime.end.p0(i64 8, ptr %11) #4
  call void @llvm.lifetime.end.p0(i64 8, ptr %10) #4
  store i32 0, ptr %8, align 4
  br label %90

90:                                               ; preds = %52, %51
  call void @llvm.lifetime.end.p0(i64 8, ptr %9) #4
  br label %91

91:                                               ; preds = %90, %43
  call void @llvm.lifetime.end.p0(i64 8, ptr %7) #4
  %92 = load i32, ptr %8, align 4
  switch i32 %92, label %94 [
    i32 0, label %93
    i32 1, label %93
  ]

93:                                               ; preds = %91, %91
  ret void

94:                                               ; preds = %91
  unreachable
}