; Function Attrs: nounwind uwtable
define internal void @drop_cb(ptr noundef %0, ptr noundef %1, ptr noundef %2) #0 {
  %.not = icmp eq ptr %0, null
  br i1 %.not, label %.preheader, label %4

.preheader:                                       ; preds = %3, %.preheader
  br label %.preheader

4:                                                ; preds = %3
  %.not28 = icmp eq ptr %1, null
  br i1 %.not28, label %.preheader30, label %5

.preheader30:                                     ; preds = %4, %.preheader30
  br label %.preheader30

5:                                                ; preds = %4
  %6 = getelementptr inbounds nuw i8, ptr %0, i64 64
  %7 = tail call ptr @lv_rb_find(ptr noundef nonnull %6, ptr noundef nonnull %1) #5
  %8 = icmp eq ptr %7, null
  br i1 %8, label %29, label %9

9:                                                ; preds = %5
  %10 = getelementptr inbounds nuw i8, ptr %7, i64 32
  %11 = load ptr, ptr %10, align 8, !tbaa !21
  %12 = getelementptr inbounds nuw i8, ptr %0, i64 40
  %13 = load ptr, ptr %12, align 8, !tbaa !14
  tail call void %13(ptr noundef %11, ptr noundef %2) #5
  %14 = getelementptr inbounds nuw i8, ptr %0, i64 112
  %15 = load ptr, ptr %14, align 8, !tbaa !16
  %16 = tail call i32 %15(ptr noundef %11) #5
  %17 = getelementptr inbounds nuw i8, ptr %0, i64 16
  %18 = load i32, ptr %17, align 8, !tbaa !25
  %19 = sub i32 %18, %16
  store i32 %19, ptr %17, align 8, !tbaa !25
  %20 = getelementptr inbounds nuw i8, ptr %0, i64 8
  %21 = load i32, ptr %20, align 8, !tbaa !23
  %22 = tail call ptr @lv_cache_entry_get_entry(ptr noundef %11, i32 noundef %21) #5
  %23 = getelementptr i8, ptr %0, i64 80
  %.val = load i64, ptr %23, align 8, !tbaa !24
  %.val29 = load ptr, ptr %10, align 8, !tbaa !21
  %24 = getelementptr inbounds nuw i8, ptr %.val29, i64 %.val
  %25 = getelementptr inbounds i8, ptr %24, i64 -8
  %26 = load ptr, ptr %25, align 8, !tbaa !20
  %27 = tail call ptr @lv_rb_remove_node(ptr noundef nonnull %6, ptr noundef nonnull %7) #5
  tail call void @lv_cache_entry_delete(ptr noundef %22) #5
  %28 = getelementptr inbounds nuw i8, ptr %0, i64 88
  tail call void @lv_ll_remove(ptr noundef nonnull %28, ptr noundef %26) #5
  tail call void @lv_free(ptr noundef %26) #5
  br label %29

29:                                               ; preds = %9, %5
  ret void
}